ARM GAS  C:\Users\Alec\AppData\Local\Temp\cceSb1Ux.s 			page 1


   1              		.cpu cortex-m0
   2              		.fpu softvfp
   3              		.eabi_attribute 20, 1
   4              		.eabi_attribute 21, 1
   5              		.eabi_attribute 23, 3
   6              		.eabi_attribute 24, 1
   7              		.eabi_attribute 25, 1
   8              		.eabi_attribute 26, 1
   9              		.eabi_attribute 30, 1
  10              		.eabi_attribute 34, 0
  11              		.eabi_attribute 18, 4
  12              		.code	16
  13              		.file	"main.c"
  14              		.text
  15              	.Ltext0:
  16              		.cfi_sections	.debug_frame
  17              		.global	__aeabi_i2d
  18              		.global	__aeabi_dmul
  19              		.global	__aeabi_ddiv
  20              		.global	__aeabi_dadd
  21              		.global	__aeabi_d2uiz
  22              		.section	.text.set_servo,"ax",%progbits
  23              		.align	2
  24              		.global	set_servo
  25              		.code	16
  26              		.thumb_func
  27              		.type	set_servo, %function
  28              	set_servo:
  29              	.LFB37:
  30              		.file 1 ".\\main.c"
   1:.\main.c      **** #include <project.h>
   2:.\main.c      **** #include <stdio.h>
   3:.\main.c      **** #include <math.h>
   4:.\main.c      **** #include "main.h"
   5:.\main.c      **** 
   6:.\main.c      **** #define  CHALLENGE_TIME 100
   7:.\main.c      **** 
   8:.\main.c      **** enum states{
   9:.\main.c      ****     ACTIVE,
  10:.\main.c      ****     OFF,
  11:.\main.c      ****     VICTORY
  12:.\main.c      **** };
  13:.\main.c      **** 
  14:.\main.c      **** unsigned int count = CHALLENGE_TIME;
  15:.\main.c      **** uint8_t battery_state = 3;
  16:.\main.c      **** uint8_t system_state = ACTIVE;
  17:.\main.c      **** uint8_t last_key_state = 0;
  18:.\main.c      **** int dumb_placeholder;
  19:.\main.c      **** char* sentString = "this test";
  20:.\main.c      **** char* inString = "";
  21:.\main.c      **** 
  22:.\main.c      **** typedef struct { // Servo object
  23:.\main.c      ****     void (*pwmPtr)(uint16_t);
  24:.\main.c      ****     uint16_t max;
  25:.\main.c      ****     uint16_t min;
  26:.\main.c      ****     double range;
  27:.\main.c      **** } Servo;
ARM GAS  C:\Users\Alec\AppData\Local\Temp\cceSb1Ux.s 			page 2


  28:.\main.c      **** 
  29:.\main.c      **** typedef struct {
  30:.\main.c      ****     void (*activatePtr)(uint8);
  31:.\main.c      ****     
  32:.\main.c      ****     uint16_t ANGLE_MAX;
  33:.\main.c      ****     uint16_t ANGLE_MIN;
  34:.\main.c      ****     uint16_t ANGLE_RESET;
  35:.\main.c      ****     uint16_t angle_current;
  36:.\main.c      ****     Servo Servo;
  37:.\main.c      **** } Manipulator;
  38:.\main.c      **** 
  39:.\main.c      **** Manipulator CurrentManipulator;
  40:.\main.c      **** 
  41:.\main.c      **** void set_servo(Servo servo, uint8_t angle){ // Set servo to the angle specified
  31              		.loc 1 41 0
  32              		.cfi_startproc
  33              	.LVL0:
  34 0000 F0B5     		push	{r4, r5, r6, r7, lr}
  35              		.cfi_def_cfa_offset 20
  36              		.cfi_offset 4, -20
  37              		.cfi_offset 5, -16
  38              		.cfi_offset 6, -12
  39              		.cfi_offset 7, -8
  40              		.cfi_offset 14, -4
  41 0002 85B0     		sub	sp, sp, #20
  42              		.cfi_def_cfa_offset 40
  43 0004 041C     		mov	r4, r0
  44 0006 0D0C     		lsr	r5, r1, #16
  45 0008 0292     		str	r2, [sp, #8]
  46 000a 0393     		str	r3, [sp, #12]
  47 000c 0AAB     		add	r3, sp, #40
  48              	.LVL1:
  49 000e 1878     		ldrb	r0, [r3]
  42:.\main.c      ****     double setpoint = angle * servo.range / 180 + servo.min;
  50              		.loc 1 42 0
  51 0010 029E     		ldr	r6, [sp, #8]
  52 0012 039F     		ldr	r7, [sp, #12]
  53 0014 FFF7FEFF 		bl	__aeabi_i2d
  54              	.LVL2:
  55 0018 321C     		mov	r2, r6
  56 001a 3B1C     		mov	r3, r7
  57 001c FFF7FEFF 		bl	__aeabi_dmul
  58              	.LVL3:
  59 0020 0022     		mov	r2, #0
  60 0022 0A4B     		ldr	r3, .L2
  61 0024 FFF7FEFF 		bl	__aeabi_ddiv
  62              	.LVL4:
  63 0028 061C     		mov	r6, r0
  64 002a 0F1C     		mov	r7, r1
  65 002c A8B2     		uxth	r0, r5
  66 002e FFF7FEFF 		bl	__aeabi_i2d
  67              	.LVL5:
  68 0032 021C     		mov	r2, r0
  69 0034 0B1C     		mov	r3, r1
  70 0036 301C     		mov	r0, r6
  71 0038 391C     		mov	r1, r7
  72 003a FFF7FEFF 		bl	__aeabi_dadd
ARM GAS  C:\Users\Alec\AppData\Local\Temp\cceSb1Ux.s 			page 3


  73              	.LVL6:
  43:.\main.c      ****     servo.pwmPtr(setpoint);
  74              		.loc 1 43 0
  75 003e FFF7FEFF 		bl	__aeabi_d2uiz
  76              	.LVL7:
  77 0042 80B2     		uxth	r0, r0
  78 0044 A047     		blx	r4
  79              	.LVL8:
  44:.\main.c      **** }
  80              		.loc 1 44 0
  81 0046 05B0     		add	sp, sp, #20
  82              		@ sp needed
  83 0048 F0BD     		pop	{r4, r5, r6, r7, pc}
  84              	.L3:
  85 004a C046     		.align	2
  86              	.L2:
  87 004c 00806640 		.word	1080459264
  88              		.cfi_endproc
  89              	.LFE37:
  90              		.size	set_servo, .-set_servo
  91              		.section	.text.set_current_manipulator,"ax",%progbits
  92              		.align	2
  93              		.global	set_current_manipulator
  94              		.code	16
  95              		.thumb_func
  96              		.type	set_current_manipulator, %function
  97              	set_current_manipulator:
  98              	.LFB38:
  45:.\main.c      **** 
  46:.\main.c      **** void set_current_manipulator(Manipulator manipulator){
  99              		.loc 1 46 0
 100              		.cfi_startproc
 101 0000 84B0     		sub	sp, sp, #16
 102              		.cfi_def_cfa_offset 16
 103 0002 00B5     		push	{lr}
 104              		.cfi_def_cfa_offset 20
 105              		.cfi_offset 14, -20
 106 0004 83B0     		sub	sp, sp, #12
 107              		.cfi_def_cfa_offset 32
 108 0006 0490     		str	r0, [sp, #16]
 109 0008 0591     		str	r1, [sp, #20]
 110 000a 0692     		str	r2, [sp, #24]
 111 000c 0793     		str	r3, [sp, #28]
  47:.\main.c      ****     CurrentManipulator = manipulator;
 112              		.loc 1 47 0
 113 000e 0F48     		ldr	r0, .L5
 114 0010 04A9     		add	r1, sp, #16
 115 0012 2022     		mov	r2, #32
 116 0014 FFF7FEFF 		bl	memcpy
 117              	.LVL9:
  48:.\main.c      ****     Servo_En_1_Write(0);
 118              		.loc 1 48 0
 119 0018 0020     		mov	r0, #0
 120 001a FFF7FEFF 		bl	Servo_En_1_Write
 121              	.LVL10:
  49:.\main.c      ****     Servo_En_2_Write(0);
 122              		.loc 1 49 0
ARM GAS  C:\Users\Alec\AppData\Local\Temp\cceSb1Ux.s 			page 4


 123 001e 0020     		mov	r0, #0
 124 0020 FFF7FEFF 		bl	Servo_En_2_Write
 125              	.LVL11:
  50:.\main.c      ****     Servo_En_3_Write(0);
 126              		.loc 1 50 0
 127 0024 0020     		mov	r0, #0
 128 0026 FFF7FEFF 		bl	Servo_En_3_Write
 129              	.LVL12:
  51:.\main.c      ****     
  52:.\main.c      ****     set_servo(manipulator.Servo,manipulator.angle_current);
 130              		.loc 1 52 0
 131 002a 04AB     		add	r3, sp, #16
 132 002c 9B7A     		ldrb	r3, [r3, #10]
 133 002e 0093     		str	r3, [sp]
 134 0030 0898     		ldr	r0, [sp, #32]
 135 0032 0999     		ldr	r1, [sp, #36]
 136 0034 0A9A     		ldr	r2, [sp, #40]
 137 0036 0B9B     		ldr	r3, [sp, #44]
 138 0038 FFF7FEFF 		bl	set_servo
 139              	.LVL13:
  53:.\main.c      ****     
  54:.\main.c      ****     manipulator.activatePtr(1);
 140              		.loc 1 54 0
 141 003c 0120     		mov	r0, #1
 142 003e 049B     		ldr	r3, [sp, #16]
 143 0040 9847     		blx	r3
 144              	.LVL14:
  55:.\main.c      **** }
 145              		.loc 1 55 0
 146 0042 03B0     		add	sp, sp, #12
 147              		@ sp needed
 148 0044 08BC     		pop	{r3}
 149 0046 04B0     		add	sp, sp, #16
 150 0048 1847     		bx	r3
 151              	.L6:
 152 004a C046     		.align	2
 153              	.L5:
 154 004c 00000000 		.word	CurrentManipulator
 155              		.cfi_endproc
 156              	.LFE38:
 157              		.size	set_current_manipulator, .-set_current_manipulator
 158              		.section	.text.set_battery_light,"ax",%progbits
 159              		.align	2
 160              		.global	set_battery_light
 161              		.code	16
 162              		.thumb_func
 163              		.type	set_battery_light, %function
 164              	set_battery_light:
 165              	.LFB39:
  56:.\main.c      **** 
  57:.\main.c      **** void set_battery_light(uint8_t setValue){
 166              		.loc 1 57 0
 167              		.cfi_startproc
 168              	.LVL15:
 169 0000 10B5     		push	{r4, lr}
 170              		.cfi_def_cfa_offset 8
 171              		.cfi_offset 4, -8
ARM GAS  C:\Users\Alec\AppData\Local\Temp\cceSb1Ux.s 			page 5


 172              		.cfi_offset 14, -4
 173 0002 041C     		mov	r4, r0
  58:.\main.c      ****     if(setValue & 0b100)
 174              		.loc 1 58 0
 175 0004 4307     		lsl	r3, r0, #29
 176 0006 03D5     		bpl	.L8
  59:.\main.c      ****         LED_1_Write(1);
 177              		.loc 1 59 0
 178 0008 0120     		mov	r0, #1
 179              	.LVL16:
 180 000a FFF7FEFF 		bl	LED_1_Write
 181              	.LVL17:
 182 000e 02E0     		b	.L9
 183              	.LVL18:
 184              	.L8:
  60:.\main.c      ****     else
  61:.\main.c      ****         LED_1_Write(0);
 185              		.loc 1 61 0
 186 0010 0020     		mov	r0, #0
 187              	.LVL19:
 188 0012 FFF7FEFF 		bl	LED_1_Write
 189              	.LVL20:
 190              	.L9:
  62:.\main.c      ****         
  63:.\main.c      ****     if(setValue & 0b10)
 191              		.loc 1 63 0
 192 0016 A307     		lsl	r3, r4, #30
 193 0018 03D5     		bpl	.L10
  64:.\main.c      ****         LED_2_Write(1);
 194              		.loc 1 64 0
 195 001a 0120     		mov	r0, #1
 196 001c FFF7FEFF 		bl	LED_2_Write
 197              	.LVL21:
 198 0020 02E0     		b	.L11
 199              	.L10:
  65:.\main.c      ****     else
  66:.\main.c      ****         LED_2_Write(0);
 200              		.loc 1 66 0
 201 0022 0020     		mov	r0, #0
 202 0024 FFF7FEFF 		bl	LED_2_Write
 203              	.LVL22:
 204              	.L11:
  67:.\main.c      ****         
  68:.\main.c      ****     if(setValue & 0b1)
 205              		.loc 1 68 0
 206 0028 E307     		lsl	r3, r4, #31
 207 002a 03D5     		bpl	.L12
  69:.\main.c      ****         LED_3_Write(1);
 208              		.loc 1 69 0
 209 002c 0120     		mov	r0, #1
 210 002e FFF7FEFF 		bl	LED_3_Write
 211              	.LVL23:
 212 0032 02E0     		b	.L7
 213              	.L12:
  70:.\main.c      ****     else
  71:.\main.c      ****         LED_3_Write(0);
 214              		.loc 1 71 0
ARM GAS  C:\Users\Alec\AppData\Local\Temp\cceSb1Ux.s 			page 6


 215 0034 0020     		mov	r0, #0
 216 0036 FFF7FEFF 		bl	LED_3_Write
 217              	.LVL24:
 218              	.L7:
  72:.\main.c      **** }
 219              		.loc 1 72 0
 220              		@ sp needed
 221 003a 10BD     		pop	{r4, pc}
 222              		.cfi_endproc
 223              	.LFE39:
 224              		.size	set_battery_light, .-set_battery_light
 225              		.section	.text.go_to_state,"ax",%progbits
 226              		.align	2
 227              		.global	go_to_state
 228              		.code	16
 229              		.thumb_func
 230              		.type	go_to_state, %function
 231              	go_to_state:
 232              	.LFB40:
  73:.\main.c      **** 
  74:.\main.c      **** void go_to_state(uint8_t state){
 233              		.loc 1 74 0
 234              		.cfi_startproc
 235              	.LVL25:
 236 0000 08B5     		push	{r3, lr}
 237              		.cfi_def_cfa_offset 8
 238              		.cfi_offset 3, -8
 239              		.cfi_offset 14, -4
  75:.\main.c      ****     system_state = state;
 240              		.loc 1 75 0
 241 0002 0D4B     		ldr	r3, .L18
 242 0004 1870     		strb	r0, [r3]
  76:.\main.c      ****     
  77:.\main.c      ****     switch(state) {
 243              		.loc 1 77 0
 244 0006 0028     		cmp	r0, #0
 245 0008 02D0     		beq	.L16
 246 000a 0128     		cmp	r0, #1
 247 000c 0DD0     		beq	.L17
 248 000e 12E0     		b	.L14
 249              	.L16:
  78:.\main.c      ****         case ACTIVE:
  79:.\main.c      ****             UART_UartPutString("System active\n");
 250              		.loc 1 79 0
 251 0010 0A48     		ldr	r0, .L18+4
 252              	.LVL26:
 253 0012 FFF7FEFF 		bl	UART_UartPutString
 254              	.LVL27:
  80:.\main.c      ****             set_battery_light(0b111);
 255              		.loc 1 80 0
 256 0016 0720     		mov	r0, #7
 257 0018 FFF7FEFF 		bl	set_battery_light
 258              	.LVL28:
  81:.\main.c      ****             battery_state = 3;
 259              		.loc 1 81 0
 260 001c 0322     		mov	r2, #3
 261 001e 084B     		ldr	r3, .L18+8
ARM GAS  C:\Users\Alec\AppData\Local\Temp\cceSb1Ux.s 			page 7


 262 0020 1A70     		strb	r2, [r3]
  82:.\main.c      ****             system_state = ACTIVE;
 263              		.loc 1 82 0
 264 0022 0022     		mov	r2, #0
 265 0024 044B     		ldr	r3, .L18
 266 0026 1A70     		strb	r2, [r3]
  83:.\main.c      ****             break;
 267              		.loc 1 83 0
 268 0028 05E0     		b	.L14
 269              	.LVL29:
 270              	.L17:
  84:.\main.c      ****     
  85:.\main.c      ****         case OFF:
  86:.\main.c      ****             UART_UartPutString("System inactive\n");
 271              		.loc 1 86 0
 272 002a 0648     		ldr	r0, .L18+12
 273              	.LVL30:
 274 002c FFF7FEFF 		bl	UART_UartPutString
 275              	.LVL31:
  87:.\main.c      ****             sentString = "System down\r";
 276              		.loc 1 87 0
 277 0030 054A     		ldr	r2, .L18+16
 278 0032 034B     		ldr	r3, .L18+8
 279 0034 5A60     		str	r2, [r3, #4]
 280              	.L14:
  88:.\main.c      ****             break;
  89:.\main.c      ****         
  90:.\main.c      ****         case VICTORY:
  91:.\main.c      ****             break;
  92:.\main.c      ****     }
  93:.\main.c      **** }
 281              		.loc 1 93 0
 282              		@ sp needed
 283 0036 08BD     		pop	{r3, pc}
 284              	.L19:
 285              		.align	2
 286              	.L18:
 287 0038 00000000 		.word	.LANCHOR0
 288 003c 00000000 		.word	.LC2
 289 0040 00000000 		.word	.LANCHOR1
 290 0044 10000000 		.word	.LC5
 291 0048 24000000 		.word	.LC7
 292              		.cfi_endproc
 293              	.LFE40:
 294              		.size	go_to_state, .-go_to_state
 295              		.section	.text.TIMER_ISR,"ax",%progbits
 296              		.align	2
 297              		.global	TIMER_ISR
 298              		.code	16
 299              		.thumb_func
 300              		.type	TIMER_ISR, %function
 301              	TIMER_ISR:
 302              	.LFB41:
  94:.\main.c      **** 
  95:.\main.c      **** CY_ISR(TIMER_ISR){
 303              		.loc 1 95 0
 304              		.cfi_startproc
ARM GAS  C:\Users\Alec\AppData\Local\Temp\cceSb1Ux.s 			page 8


 305 0000 08B5     		push	{r3, lr}
 306              		.cfi_def_cfa_offset 8
 307              		.cfi_offset 3, -8
 308              		.cfi_offset 14, -4
  96:.\main.c      ****     if (system_state == ACTIVE){
 309              		.loc 1 96 0
 310 0002 124B     		ldr	r3, .L25
 311 0004 1B78     		ldrb	r3, [r3]
 312 0006 002B     		cmp	r3, #0
 313 0008 1FD1     		bne	.L20
  97:.\main.c      ****         count--;
 314              		.loc 1 97 0
 315 000a 114A     		ldr	r2, .L25+4
 316 000c 9368     		ldr	r3, [r2, #8]
 317 000e 013B     		sub	r3, r3, #1
 318 0010 9360     		str	r3, [r2, #8]
  98:.\main.c      ****         if(count == 0){
 319              		.loc 1 98 0
 320 0012 002B     		cmp	r3, #0
 321 0014 19D1     		bne	.L20
  99:.\main.c      ****          count = CHALLENGE_TIME;
 322              		.loc 1 99 0
 323 0016 6433     		add	r3, r3, #100
 324 0018 9360     		str	r3, [r2, #8]
 100:.\main.c      ****          battery_state--;
 325              		.loc 1 100 0
 326 001a 1378     		ldrb	r3, [r2]
 327 001c 013B     		sub	r3, r3, #1
 328 001e DBB2     		uxtb	r3, r3
 329 0020 1370     		strb	r3, [r2]
 101:.\main.c      ****             
 102:.\main.c      ****          switch(battery_state){
 330              		.loc 1 102 0
 331 0022 012B     		cmp	r3, #1
 332 0024 07D0     		beq	.L22
 333 0026 002B     		cmp	r3, #0
 334 0028 09D0     		beq	.L23
 335 002a 022B     		cmp	r3, #2
 336 002c 0DD1     		bne	.L20
 103:.\main.c      ****             case 2:
 104:.\main.c      ****                 set_battery_light(0b011);
 337              		.loc 1 104 0
 338 002e 0320     		mov	r0, #3
 339 0030 FFF7FEFF 		bl	set_battery_light
 340              	.LVL32:
 105:.\main.c      ****                 break;
 341              		.loc 1 105 0
 342 0034 09E0     		b	.L20
 343              	.L22:
 106:.\main.c      ****                 
 107:.\main.c      ****             case 1:
 108:.\main.c      ****                 set_battery_light(0b001);
 344              		.loc 1 108 0
 345 0036 0120     		mov	r0, #1
 346 0038 FFF7FEFF 		bl	set_battery_light
 347              	.LVL33:
 109:.\main.c      ****                 break;
ARM GAS  C:\Users\Alec\AppData\Local\Temp\cceSb1Ux.s 			page 9


 348              		.loc 1 109 0
 349 003c 05E0     		b	.L20
 350              	.L23:
 110:.\main.c      ****                 
 111:.\main.c      ****             case 0:
 112:.\main.c      ****                 set_battery_light(0b000);
 351              		.loc 1 112 0
 352 003e 0020     		mov	r0, #0
 353 0040 FFF7FEFF 		bl	set_battery_light
 354              	.LVL34:
 113:.\main.c      ****                 go_to_state(OFF);
 355              		.loc 1 113 0
 356 0044 0120     		mov	r0, #1
 357 0046 FFF7FEFF 		bl	go_to_state
 358              	.LVL35:
 359              	.L20:
 114:.\main.c      ****                 break;
 115:.\main.c      ****                 
 116:.\main.c      ****            }
 117:.\main.c      ****         }
 118:.\main.c      ****     }
 119:.\main.c      **** }
 360              		.loc 1 119 0
 361              		@ sp needed
 362 004a 08BD     		pop	{r3, pc}
 363              	.L26:
 364              		.align	2
 365              	.L25:
 366 004c 00000000 		.word	.LANCHOR0
 367 0050 00000000 		.word	.LANCHOR1
 368              		.cfi_endproc
 369              	.LFE41:
 370              		.size	TIMER_ISR, .-TIMER_ISR
 371              		.section	.text.create_servo,"ax",%progbits
 372              		.align	2
 373              		.global	create_servo
 374              		.code	16
 375              		.thumb_func
 376              		.type	create_servo, %function
 377              	create_servo:
 378              	.LFB42:
 120:.\main.c      **** 
 121:.\main.c      **** Servo create_servo(void (pwm_ptr)(uint16_t), uint16_t min, uint16_t max){ // Initializes the servo 
 379              		.loc 1 121 0
 380              		.cfi_startproc
 381              	.LVL36:
 382 0000 38B5     		push	{r3, r4, r5, lr}
 383              		.cfi_def_cfa_offset 16
 384              		.cfi_offset 3, -16
 385              		.cfi_offset 4, -12
 386              		.cfi_offset 5, -8
 387              		.cfi_offset 14, -4
 388 0002 041C     		mov	r4, r0
 389 0004 0D1C     		mov	r5, r1
 122:.\main.c      ****     Servo createdServo;
 123:.\main.c      ****     createdServo.max = max;
 390              		.loc 1 123 0
ARM GAS  C:\Users\Alec\AppData\Local\Temp\cceSb1Ux.s 			page 10


 391 0006 8380     		strh	r3, [r0, #4]
 124:.\main.c      ****     createdServo.min = min;
 392              		.loc 1 124 0
 393 0008 C280     		strh	r2, [r0, #6]
 125:.\main.c      ****     createdServo.range = max - min;
 394              		.loc 1 125 0
 395 000a 981A     		sub	r0, r3, r2
 396              	.LVL37:
 397 000c FFF7FEFF 		bl	__aeabi_i2d
 398              	.LVL38:
 399 0010 A060     		str	r0, [r4, #8]
 400 0012 E160     		str	r1, [r4, #12]
 126:.\main.c      ****     createdServo.pwmPtr = pwm_ptr;
 401              		.loc 1 126 0
 402 0014 2560     		str	r5, [r4]
 127:.\main.c      ****     return createdServo;
 128:.\main.c      **** }
 403              		.loc 1 128 0
 404 0016 201C     		mov	r0, r4
 405              		@ sp needed
 406              	.LVL39:
 407              	.LVL40:
 408 0018 38BD     		pop	{r3, r4, r5, pc}
 409              		.cfi_endproc
 410              	.LFE42:
 411              		.size	create_servo, .-create_servo
 412 001a C046     		.section	.text.create_manipulator,"ax",%progbits
 413              		.align	2
 414              		.global	create_manipulator
 415              		.code	16
 416              		.thumb_func
 417              		.type	create_manipulator, %function
 418              	create_manipulator:
 419              	.LFB43:
 129:.\main.c      **** 
 130:.\main.c      **** Manipulator create_manipulator(void (en_ptr)(uint8),
 131:.\main.c      ****                                 uint16_t angle_min, uint16_t angle_max,
 132:.\main.c      ****                                 uint16_t per_full, uint16_t per_none,
 133:.\main.c      ****                                 uint16_t angle_reset)
 134:.\main.c      **** {                                    
 420              		.loc 1 134 0
 421              		.cfi_startproc
 422              	.LVL41:
 423 0000 70B5     		push	{r4, r5, r6, lr}
 424              		.cfi_def_cfa_offset 16
 425              		.cfi_offset 4, -16
 426              		.cfi_offset 5, -12
 427              		.cfi_offset 6, -8
 428              		.cfi_offset 14, -4
 429 0002 84B0     		sub	sp, sp, #16
 430              		.cfi_def_cfa_offset 32
 431 0004 041C     		mov	r4, r0
 432 0006 161C     		mov	r6, r2
 433 0008 1D1C     		mov	r5, r3
 434 000a 08AB     		add	r3, sp, #32
 435              	.LVL42:
 436 000c 1B88     		ldrh	r3, [r3]
ARM GAS  C:\Users\Alec\AppData\Local\Temp\cceSb1Ux.s 			page 11


 437              	.LVL43:
 438 000e 09AA     		add	r2, sp, #36
 439              	.LVL44:
 440 0010 1288     		ldrh	r2, [r2]
 441              	.LVL45:
 442 0012 0AA8     		add	r0, sp, #40
 443              	.LVL46:
 444 0014 0088     		ldrh	r0, [r0]
 445              	.LVL47:
 135:.\main.c      ****     
 136:.\main.c      ****     Manipulator createdManipulator;
 137:.\main.c      ****     createdManipulator.activatePtr = en_ptr;
 446              		.loc 1 137 0
 447 0016 2160     		str	r1, [r4]
 138:.\main.c      ****                                     
 139:.\main.c      ****     createdManipulator.ANGLE_MIN = angle_min;
 448              		.loc 1 139 0
 449 0018 E680     		strh	r6, [r4, #6]
 140:.\main.c      ****     createdManipulator.ANGLE_MAX = angle_max;
 450              		.loc 1 140 0
 451 001a A580     		strh	r5, [r4, #4]
 141:.\main.c      ****     createdManipulator.ANGLE_RESET = angle_reset;
 452              		.loc 1 141 0
 453 001c 2081     		strh	r0, [r4, #8]
 142:.\main.c      ****     createdManipulator.angle_current = angle_reset;
 454              		.loc 1 142 0
 455 001e 6081     		strh	r0, [r4, #10]
 143:.\main.c      ****     createdManipulator.Servo = create_servo(PWM_1_WriteCompare,per_none,per_full);
 456              		.loc 1 143 0
 457 0020 6846     		mov	r0, sp
 458 0022 0649     		ldr	r1, .L29
 459              	.LVL48:
 460 0024 FFF7FEFF 		bl	create_servo
 461              	.LVL49:
 462 0028 201C     		mov	r0, r4
 463 002a 1030     		add	r0, r0, #16
 464 002c 6946     		mov	r1, sp
 465 002e 1022     		mov	r2, #16
 466 0030 FFF7FEFF 		bl	memcpy
 467              	.LVL50:
 144:.\main.c      ****     
 145:.\main.c      ****     return createdManipulator;
 146:.\main.c      **** }
 468              		.loc 1 146 0
 469 0034 201C     		mov	r0, r4
 470 0036 04B0     		add	sp, sp, #16
 471              		@ sp needed
 472              	.LVL51:
 473 0038 70BD     		pop	{r4, r5, r6, pc}
 474              	.L30:
 475 003a C046     		.align	2
 476              	.L29:
 477 003c 00000000 		.word	PWM_1_WriteCompare
 478              		.cfi_endproc
 479              	.LFE43:
 480              		.size	create_manipulator, .-create_manipulator
 481              		.section	.text.SetDesiredAngle,"ax",%progbits
ARM GAS  C:\Users\Alec\AppData\Local\Temp\cceSb1Ux.s 			page 12


 482              		.align	2
 483              		.global	SetDesiredAngle
 484              		.code	16
 485              		.thumb_func
 486              		.type	SetDesiredAngle, %function
 487              	SetDesiredAngle:
 488              	.LFB44:
 147:.\main.c      **** 
 148:.\main.c      **** void SetDesiredAngle(uint8 angle){
 489              		.loc 1 148 0
 490              		.cfi_startproc
 491              	.LVL52:
 149:.\main.c      ****     if (angle > CurrentManipulator.ANGLE_MAX){
 492              		.loc 1 149 0
 493 0000 83B2     		uxth	r3, r0
 494 0002 074A     		ldr	r2, .L34
 495 0004 9288     		ldrh	r2, [r2, #4]
 496 0006 9342     		cmp	r3, r2
 497 0008 01D9     		bls	.L32
 150:.\main.c      ****         angle = CurrentManipulator.ANGLE_MAX;
 498              		.loc 1 150 0
 499 000a D0B2     		uxtb	r0, r2
 500              	.LVL53:
 501 000c 04E0     		b	.L33
 502              	.L32:
 151:.\main.c      ****     } else if (angle < CurrentManipulator.ANGLE_MIN) {
 503              		.loc 1 151 0
 504 000e 044A     		ldr	r2, .L34
 505 0010 D288     		ldrh	r2, [r2, #6]
 506 0012 9342     		cmp	r3, r2
 507 0014 00D2     		bcs	.L33
 152:.\main.c      ****         angle = CurrentManipulator.ANGLE_MIN;
 508              		.loc 1 152 0
 509 0016 D0B2     		uxtb	r0, r2
 510              	.LVL54:
 511              	.L33:
 153:.\main.c      ****     }
 154:.\main.c      ****     
 155:.\main.c      ****     CurrentManipulator.angle_current = angle;
 512              		.loc 1 155 0
 513 0018 014B     		ldr	r3, .L34
 514 001a 5881     		strh	r0, [r3, #10]
 156:.\main.c      **** }
 515              		.loc 1 156 0
 516              		@ sp needed
 517 001c 7047     		bx	lr
 518              	.L35:
 519 001e C046     		.align	2
 520              	.L34:
 521 0020 00000000 		.word	CurrentManipulator
 522              		.cfi_endproc
 523              	.LFE44:
 524              		.size	SetDesiredAngle, .-SetDesiredAngle
 525              		.global	__aeabi_d2iz
 526              		.section	.text.UpdatePositions,"ax",%progbits
 527              		.align	2
 528              		.global	UpdatePositions
ARM GAS  C:\Users\Alec\AppData\Local\Temp\cceSb1Ux.s 			page 13


 529              		.code	16
 530              		.thumb_func
 531              		.type	UpdatePositions, %function
 532              	UpdatePositions:
 533              	.LFB45:
 157:.\main.c      **** 
 158:.\main.c      **** void UpdatePositions(){
 534              		.loc 1 158 0
 535              		.cfi_startproc
 536 0000 F0B5     		push	{r4, r5, r6, r7, lr}
 537              		.cfi_def_cfa_offset 20
 538              		.cfi_offset 4, -20
 539              		.cfi_offset 5, -16
 540              		.cfi_offset 6, -12
 541              		.cfi_offset 7, -8
 542              		.cfi_offset 14, -4
 543 0002 83B0     		sub	sp, sp, #12
 544              		.cfi_def_cfa_offset 32
 159:.\main.c      ****     if ((inString[0] == '1' || inString[0] == '2' || inString[0] == '3') && inString[1] == ' '){
 545              		.loc 1 159 0
 546 0004 2F4B     		ldr	r3, .L45
 547 0006 D868     		ldr	r0, [r3, #12]
 548 0008 0378     		ldrb	r3, [r0]
 549 000a 313B     		sub	r3, r3, #49
 550 000c 022B     		cmp	r3, #2
 551 000e 52D8     		bhi	.L37
 552              		.loc 1 159 0 is_stmt 0 discriminator 1
 553 0010 4378     		ldrb	r3, [r0, #1]
 554 0012 202B     		cmp	r3, #32
 555 0014 4FD1     		bne	.L37
 556              	.LBB2:
 160:.\main.c      ****             uint8 length = strlen(inString) - 1;
 557              		.loc 1 160 0 is_stmt 1
 558 0016 FFF7FEFF 		bl	strlen
 559              	.LVL55:
 560 001a 441E     		sub	r4, r0, #1
 561 001c E4B2     		uxtb	r4, r4
 562              	.LVL56:
 161:.\main.c      ****             uint8 i = 0;
 162:.\main.c      ****             uint8 isValid = 1;
 163:.\main.c      ****             char debug[80];
 164:.\main.c      ****             double placeVal = 0;
 165:.\main.c      ****             int holdingVar = 0;
 563              		.loc 1 165 0
 564 001e 0026     		mov	r6, #0
 164:.\main.c      ****             int holdingVar = 0;
 565              		.loc 1 164 0
 566 0020 0022     		mov	r2, #0
 567 0022 0023     		mov	r3, #0
 568 0024 0092     		str	r2, [sp]
 569 0026 0193     		str	r3, [sp, #4]
 162:.\main.c      ****             char debug[80];
 570              		.loc 1 162 0
 571 0028 0125     		mov	r5, #1
 166:.\main.c      ****             for(i = length; i > 2; i--){
 572              		.loc 1 166 0
 573 002a 22E0     		b	.L38
ARM GAS  C:\Users\Alec\AppData\Local\Temp\cceSb1Ux.s 			page 14


 574              	.LVL57:
 575              	.L40:
 167:.\main.c      ****                 if(!isdigit(inString[i])){
 576              		.loc 1 167 0
 577 002c 254B     		ldr	r3, .L45
 578 002e DB68     		ldr	r3, [r3, #12]
 579 0030 1A5D     		ldrb	r2, [r3, r4]
 580 0032 254B     		ldr	r3, .L45+4
 581 0034 1B68     		ldr	r3, [r3]
 582 0036 9B18     		add	r3, r3, r2
 583 0038 5B78     		ldrb	r3, [r3, #1]
 584 003a 5B07     		lsl	r3, r3, #29
 585 003c 15D5     		bpl	.L44
 168:.\main.c      ****                     isValid = 0;
 169:.\main.c      ****                     i = 3;
 170:.\main.c      ****                 } else {
 171:.\main.c      ****                     holdingVar += (inString[i] - '0') * (int) pow(10, placeVal);
 586              		.loc 1 171 0
 587 003e 303A     		sub	r2, r2, #48
 588 0040 171C     		mov	r7, r2
 589 0042 0020     		mov	r0, #0
 590 0044 2149     		ldr	r1, .L45+8
 591 0046 009A     		ldr	r2, [sp]
 592 0048 019B     		ldr	r3, [sp, #4]
 593 004a FFF7FEFF 		bl	pow
 594              	.LVL58:
 595 004e FFF7FEFF 		bl	__aeabi_d2iz
 596              	.LVL59:
 597 0052 021C     		mov	r2, r0
 598 0054 7A43     		mul	r2, r7
 599 0056 B618     		add	r6, r6, r2
 600              	.LVL60:
 172:.\main.c      ****                     placeVal++;
 601              		.loc 1 172 0
 602 0058 0098     		ldr	r0, [sp]
 603 005a 0199     		ldr	r1, [sp, #4]
 604 005c 0022     		mov	r2, #0
 605 005e 1C4B     		ldr	r3, .L45+12
 606 0060 FFF7FEFF 		bl	__aeabi_dadd
 607              	.LVL61:
 608 0064 0090     		str	r0, [sp]
 609 0066 0191     		str	r1, [sp, #4]
 610              	.LVL62:
 611 0068 01E0     		b	.L39
 612              	.LVL63:
 613              	.L44:
 168:.\main.c      ****                     isValid = 0;
 614              		.loc 1 168 0
 615 006a 0025     		mov	r5, #0
 616              	.LVL64:
 169:.\main.c      ****                 } else {
 617              		.loc 1 169 0
 618 006c 0324     		mov	r4, #3
 619              	.LVL65:
 620              	.L39:
 166:.\main.c      ****                 if(!isdigit(inString[i])){
 621              		.loc 1 166 0 discriminator 2
ARM GAS  C:\Users\Alec\AppData\Local\Temp\cceSb1Ux.s 			page 15


 622 006e 013C     		sub	r4, r4, #1
 623              	.LVL66:
 624 0070 E4B2     		uxtb	r4, r4
 625              	.LVL67:
 626              	.L38:
 166:.\main.c      ****                 if(!isdigit(inString[i])){
 627              		.loc 1 166 0 is_stmt 0 discriminator 1
 628 0072 022C     		cmp	r4, #2
 629 0074 DAD8     		bhi	.L40
 173:.\main.c      ****                 }
 174:.\main.c      ****             }
 175:.\main.c      ****             
 176:.\main.c      ****             if(inString[2] == '-') {
 630              		.loc 1 176 0 is_stmt 1
 631 0076 134B     		ldr	r3, .L45
 632 0078 DB68     		ldr	r3, [r3, #12]
 633 007a 9B78     		ldrb	r3, [r3, #2]
 634 007c 2D2B     		cmp	r3, #45
 635 007e 01D1     		bne	.L41
 177:.\main.c      ****                 holdingVar *= -1;
 636              		.loc 1 177 0
 637 0080 7642     		neg	r6, r6
 638              	.LVL68:
 639 0082 12E0     		b	.L42
 640              	.L41:
 178:.\main.c      ****             } else if (isdigit(inString[2])){
 641              		.loc 1 178 0
 642 0084 104A     		ldr	r2, .L45+4
 643 0086 1268     		ldr	r2, [r2]
 644 0088 D218     		add	r2, r2, r3
 645 008a 5278     		ldrb	r2, [r2, #1]
 646 008c 5207     		lsl	r2, r2, #29
 647 008e 0CD5     		bpl	.L42
 179:.\main.c      ****                 holdingVar += (inString[2] - '0') * (int) pow(10, placeVal); 
 648              		.loc 1 179 0
 649 0090 303B     		sub	r3, r3, #48
 650 0092 1C1C     		mov	r4, r3
 651              	.LVL69:
 652 0094 0020     		mov	r0, #0
 653 0096 0D49     		ldr	r1, .L45+8
 654 0098 009A     		ldr	r2, [sp]
 655 009a 019B     		ldr	r3, [sp, #4]
 656 009c FFF7FEFF 		bl	pow
 657              	.LVL70:
 658 00a0 FFF7FEFF 		bl	__aeabi_d2iz
 659              	.LVL71:
 660 00a4 031C     		mov	r3, r0
 661 00a6 6343     		mul	r3, r4
 662 00a8 F618     		add	r6, r6, r3
 663              	.LVL72:
 664              	.L42:
 180:.\main.c      ****             }
 181:.\main.c      ****             
 182:.\main.c      ****             if(isValid){
 665              		.loc 1 182 0
 666 00aa 002D     		cmp	r5, #0
 667 00ac 05D0     		beq	.L43
ARM GAS  C:\Users\Alec\AppData\Local\Temp\cceSb1Ux.s 			page 16


 183:.\main.c      ****                 SetDesiredAngle(holdingVar);
 668              		.loc 1 183 0
 669 00ae F0B2     		uxtb	r0, r6
 670 00b0 FFF7FEFF 		bl	SetDesiredAngle
 671              	.LVL73:
 672 00b4 01E0     		b	.L43
 673              	.LVL74:
 674              	.L37:
 675              	.LBE2:
 184:.\main.c      **** //                sentString = "Is number\r";
 185:.\main.c      **** //                sprintf(debug, "Length: %d\n", holdingVar);
 186:.\main.c      **** //                UART_UartPutString(debug);
 187:.\main.c      ****             }
 188:.\main.c      ****             //SetDesiredAngle(CurrentManipulator.angle_current + holdingVar);
 189:.\main.c      ****             //sprintf(sentString, "test");
 190:.\main.c      ****         } else {
 191:.\main.c      ****             UART_UartPutString(inString);    
 676              		.loc 1 191 0
 677 00b6 FFF7FEFF 		bl	UART_UartPutString
 678              	.LVL75:
 679              	.L43:
 192:.\main.c      ****         }
 193:.\main.c      ****         inString = "";
 680              		.loc 1 193 0
 681 00ba 064A     		ldr	r2, .L45+16
 682 00bc 014B     		ldr	r3, .L45
 683 00be DA60     		str	r2, [r3, #12]
 194:.\main.c      **** }
 684              		.loc 1 194 0
 685 00c0 03B0     		add	sp, sp, #12
 686              		@ sp needed
 687 00c2 F0BD     		pop	{r4, r5, r6, r7, pc}
 688              	.L46:
 689              		.align	2
 690              	.L45:
 691 00c4 00000000 		.word	.LANCHOR1
 692 00c8 00000000 		.word	__ctype_ptr__
 693 00cc 00002440 		.word	1076101120
 694 00d0 0000F03F 		.word	1072693248
 695 00d4 34000000 		.word	.LC15
 696              		.cfi_endproc
 697              	.LFE45:
 698              		.size	UpdatePositions, .-UpdatePositions
 699              		.section	.text.main,"ax",%progbits
 700              		.align	2
 701              		.global	main
 702              		.code	16
 703              		.thumb_func
 704              		.type	main, %function
 705              	main:
 706              	.LFB46:
 195:.\main.c      **** 
 196:.\main.c      **** int main()
 197:.\main.c      **** {
 707              		.loc 1 197 0
 708              		.cfi_startproc
 709 0000 70B5     		push	{r4, r5, r6, lr}
ARM GAS  C:\Users\Alec\AppData\Local\Temp\cceSb1Ux.s 			page 17


 710              		.cfi_def_cfa_offset 16
 711              		.cfi_offset 4, -16
 712              		.cfi_offset 5, -12
 713              		.cfi_offset 6, -8
 714              		.cfi_offset 14, -4
 715 0002 9CB0     		sub	sp, sp, #112
 716              		.cfi_def_cfa_offset 128
 198:.\main.c      ****     #ifdef LOW_POWER_MODE    
 199:.\main.c      ****         CYBLE_LP_MODE_T         lpMode;
 200:.\main.c      ****         CYBLE_BLESS_STATE_T     blessState;
 201:.\main.c      ****     #endif
 202:.\main.c      ****     
 203:.\main.c      ****     CYBLE_API_RESULT_T      bleApiResult;
 204:.\main.c      ****     
 205:.\main.c      ****     CyGlobalIntEnable;
 717              		.loc 1 205 0
 718              	@ 205 ".\main.c" 1
 719 0004 62B6     		CPSIE   i
 720              	@ 0 "" 2
 206:.\main.c      ****     
 207:.\main.c      ****     /* Start UART and BLE component and display project information */
 208:.\main.c      ****     UART_Start();   
 721              		.loc 1 208 0
 722              		.code	16
 723 0006 FFF7FEFF 		bl	UART_Start
 724              	.LVL76:
 209:.\main.c      ****     bleApiResult = CyBle_Start(AppCallBack); 
 725              		.loc 1 209 0
 726 000a 4E48     		ldr	r0, .L59
 727 000c FFF7FEFF 		bl	CyBle_Start
 728              	.LVL77:
 210:.\main.c      ****     
 211:.\main.c      ****     if(bleApiResult == CYBLE_ERROR_OK)
 729              		.loc 1 211 0
 730 0010 0028     		cmp	r0, #0
 731 0012 43D1     		bne	.L48
 212:.\main.c      ****     {
 213:.\main.c      ****         #ifdef PRINT_MESSAGE_LOG
 214:.\main.c      ****             UART_UartPutString("\n\r************************************************************");
 732              		.loc 1 214 0
 733 0014 4C48     		ldr	r0, .L59+4
 734              	.LVL78:
 735 0016 FFF7FEFF 		bl	UART_UartPutString
 736              	.LVL79:
 215:.\main.c      ****             UART_UartPutString("\n\r***************** BLE UART example project *****************");
 737              		.loc 1 215 0
 738 001a 4C48     		ldr	r0, .L59+8
 739 001c FFF7FEFF 		bl	UART_UartPutString
 740              	.LVL80:
 216:.\main.c      ****             UART_UartPutString("\n\r************************************************************\n\
 741              		.loc 1 216 0
 742 0020 4B48     		ldr	r0, .L59+12
 743 0022 FFF7FEFF 		bl	UART_UartPutString
 744              	.LVL81:
 217:.\main.c      ****             UART_UartPutString("\n\rDevice role \t: PERIPHERAL");
 745              		.loc 1 217 0
 746 0026 4B48     		ldr	r0, .L59+16
ARM GAS  C:\Users\Alec\AppData\Local\Temp\cceSb1Ux.s 			page 18


 747 0028 FFF7FEFF 		bl	UART_UartPutString
 748              	.LVL82:
 218:.\main.c      ****             
 219:.\main.c      ****             #ifdef LOW_POWER_MODE
 220:.\main.c      ****                 UART_UartPutString("\n\rLow Power Mode \t: ENABLED");
 749              		.loc 1 220 0
 750 002c 4A48     		ldr	r0, .L59+20
 751 002e FFF7FEFF 		bl	UART_UartPutString
 752              	.LVL83:
 221:.\main.c      ****             #else
 222:.\main.c      ****                 UART_UartPutString("\n\rLow Power Mode \t: DISABLED");
 223:.\main.c      ****             #endif
 224:.\main.c      ****             
 225:.\main.c      ****             #ifdef FLOW_CONTROL
 226:.\main.c      ****                 UART_UartPutString("\n\rFlow Control \t: ENABLED");  
 753              		.loc 1 226 0
 754 0032 4A48     		ldr	r0, .L59+24
 755 0034 FFF7FEFF 		bl	UART_UartPutString
 756              	.LVL84:
 227:.\main.c      ****             #else
 228:.\main.c      ****                 UART_UartPutString("\n\rFlow Control \t: DISABLED");
 229:.\main.c      ****             #endif
 230:.\main.c      ****             
 231:.\main.c      ****         #endif
 232:.\main.c      ****     }
 233:.\main.c      ****     else
 234:.\main.c      ****     {
 235:.\main.c      ****         #ifdef PRINT_MESSAGE_LOG   
 236:.\main.c      ****             UART_UartPutString("\n\r\t\tCyBle stack initilization FAILED!!! \n\r ");
 237:.\main.c      ****         #endif
 238:.\main.c      ****         
 239:.\main.c      ****         /* Enter infinite loop */
 240:.\main.c      ****         while(1);
 241:.\main.c      ****     }
 242:.\main.c      ****     
 243:.\main.c      ****     CyBle_ProcessEvents();
 757              		.loc 1 243 0
 758 0038 FFF7FEFF 		bl	CyBle_ProcessEvents
 759              	.LVL85:
 244:.\main.c      ****     
 245:.\main.c      ****     /***************************************************************************
 246:.\main.c      ****     * Main polling loop
 247:.\main.c      ****     ***************************************************************************/
 248:.\main.c      ****     Countdown_Start();
 760              		.loc 1 248 0
 761 003c FFF7FEFF 		bl	Countdown_Start
 762              	.LVL86:
 249:.\main.c      ****     timer_interrupt_StartEx(TIMER_ISR);
 763              		.loc 1 249 0
 764 0040 4748     		ldr	r0, .L59+28
 765 0042 FFF7FEFF 		bl	timer_interrupt_StartEx
 766              	.LVL87:
 250:.\main.c      ****     CyGlobalIntEnable; /* Enable global interrupts. */
 767              		.loc 1 250 0
 768              	@ 250 ".\main.c" 1
 769 0046 62B6     		CPSIE   i
 770              	@ 0 "" 2
ARM GAS  C:\Users\Alec\AppData\Local\Temp\cceSb1Ux.s 			page 19


 251:.\main.c      ****     PWM_1_Enable();
 771              		.loc 1 251 0
 772              		.code	16
 773 0048 FFF7FEFF 		bl	PWM_1_Enable
 774              	.LVL88:
 252:.\main.c      ****     set_battery_light(0b111);
 775              		.loc 1 252 0
 776 004c 0720     		mov	r0, #7
 777 004e FFF7FEFF 		bl	set_battery_light
 778              	.LVL89:
 253:.\main.c      ****     
 254:.\main.c      ****     Manipulator Servo1 = create_manipulator(Servo_En_1_Write,
 779              		.loc 1 254 0
 780 0052 444E     		ldr	r6, .L59+32
 781 0054 0096     		str	r6, [sp]
 782 0056 AF25     		mov	r5, #175
 783 0058 ED00     		lsl	r5, r5, #3
 784 005a 0195     		str	r5, [sp, #4]
 785 005c 5A24     		mov	r4, #90
 786 005e 0294     		str	r4, [sp, #8]
 787 0060 14A8     		add	r0, sp, #80
 788 0062 4149     		ldr	r1, .L59+36
 789 0064 0022     		mov	r2, #0
 790 0066 B423     		mov	r3, #180
 791 0068 FFF7FEFF 		bl	create_manipulator
 792              	.LVL90:
 255:.\main.c      ****                                 0, 180,
 256:.\main.c      ****                                 6750, 1400,
 257:.\main.c      ****                                 90);
 258:.\main.c      ****     
 259:.\main.c      ****     Manipulator Servo2 = create_manipulator(Servo_En_2_Write,
 793              		.loc 1 259 0
 794 006c 0096     		str	r6, [sp]
 795 006e 0195     		str	r5, [sp, #4]
 796 0070 0294     		str	r4, [sp, #8]
 797 0072 0CA8     		add	r0, sp, #48
 798 0074 3D49     		ldr	r1, .L59+40
 799 0076 0022     		mov	r2, #0
 800 0078 B423     		mov	r3, #180
 801 007a FFF7FEFF 		bl	create_manipulator
 802              	.LVL91:
 260:.\main.c      ****                                 0, 180,
 261:.\main.c      ****                                 6750, 1400,
 262:.\main.c      ****                                 90);
 263:.\main.c      ****     
 264:.\main.c      ****     Manipulator Servo3 = create_manipulator(Servo_En_3_Write,
 803              		.loc 1 264 0
 804 007e 0096     		str	r6, [sp]
 805 0080 0195     		str	r5, [sp, #4]
 806 0082 0294     		str	r4, [sp, #8]
 807 0084 04A8     		add	r0, sp, #16
 808 0086 3A49     		ldr	r1, .L59+44
 809 0088 0022     		mov	r2, #0
 810 008a B423     		mov	r3, #180
 811 008c FFF7FEFF 		bl	create_manipulator
 812              	.LVL92:
 265:.\main.c      ****                                 0, 180,
ARM GAS  C:\Users\Alec\AppData\Local\Temp\cceSb1Ux.s 			page 20


 266:.\main.c      ****                                 6750, 1400,
 267:.\main.c      ****                                 90);
 268:.\main.c      ****     
 269:.\main.c      ****     CurrentManipulator = Servo1;
 813              		.loc 1 269 0
 814 0090 3848     		ldr	r0, .L59+48
 815 0092 14A9     		add	r1, sp, #80
 816 0094 2022     		mov	r2, #32
 817 0096 FFF7FEFF 		bl	memcpy
 818              	.LVL93:
 819 009a 03E0     		b	.L51
 820              	.LVL94:
 821              	.L48:
 236:.\main.c      ****         #endif
 822              		.loc 1 236 0
 823 009c 3648     		ldr	r0, .L59+52
 824              	.LVL95:
 825 009e FFF7FEFF 		bl	UART_UartPutString
 826              	.LVL96:
 827              	.L50:
 240:.\main.c      ****     }
 828              		.loc 1 240 0 discriminator 1
 829 00a2 FEE7     		b	.L50
 830              	.L51:
 270:.\main.c      ****     
 271:.\main.c      ****     for(;;)
 272:.\main.c      ****     {
 273:.\main.c      ****         #ifdef LOW_POWER_MODE
 274:.\main.c      ****             
 275:.\main.c      ****             if((CyBle_GetState() != CYBLE_STATE_INITIALIZING) && (CyBle_GetState() != CYBLE_STATE_D
 831              		.loc 1 275 0
 832 00a4 354B     		ldr	r3, .L59+56
 833 00a6 1B78     		ldrb	r3, [r3]
 834 00a8 012B     		cmp	r3, #1
 835 00aa 36D0     		beq	.L52
 836              		.loc 1 275 0 is_stmt 0 discriminator 1
 837 00ac 042B     		cmp	r3, #4
 838 00ae 34D0     		beq	.L52
 276:.\main.c      ****             {
 277:.\main.c      ****                 /* Enter DeepSleep mode between connection intervals */
 278:.\main.c      ****                 
 279:.\main.c      ****                 lpMode = CyBle_EnterLPM(CYBLE_BLESS_DEEPSLEEP);
 839              		.loc 1 279 0 is_stmt 1
 840 00b0 0320     		mov	r0, #3
 841 00b2 FFF7FEFF 		bl	CyBle_EnterLPM
 842              	.LVL97:
 843 00b6 041C     		mov	r4, r0
 844              	.LVL98:
 280:.\main.c      ****                 CyGlobalIntDisable;
 845              		.loc 1 280 0
 846              	@ 280 ".\main.c" 1
 847 00b8 72B6     		CPSID   i
 848              	@ 0 "" 2
 281:.\main.c      ****                 blessState = CyBle_GetBleSsState();
 849              		.loc 1 281 0
 850              		.code	16
 851 00ba FFF7FEFF 		bl	CyBle_GetBleSsState
ARM GAS  C:\Users\Alec\AppData\Local\Temp\cceSb1Ux.s 			page 21


 852              	.LVL99:
 282:.\main.c      **** 
 283:.\main.c      ****                 if(lpMode == CYBLE_BLESS_DEEPSLEEP) 
 853              		.loc 1 283 0
 854 00be 032C     		cmp	r4, #3
 855 00c0 16D1     		bne	.L53
 284:.\main.c      ****                 {   
 285:.\main.c      ****                     if((blessState == CYBLE_BLESS_STATE_ECO_ON || blessState == CYBLE_BLESS_STATE_D
 856              		.loc 1 285 0
 857 00c2 0428     		cmp	r0, #4
 858 00c4 01D0     		beq	.L54
 859              		.loc 1 285 0 is_stmt 0 discriminator 1
 860 00c6 0628     		cmp	r0, #6
 861 00c8 26D1     		bne	.L55
 862              	.L54:
 286:.\main.c      ****                             (UART_SpiUartGetTxBufferSize() + UART_GET_TX_FIFO_SR_VALID) == 0u)
 863              		.loc 1 286 0 is_stmt 1
 864 00ca FFF7FEFF 		bl	UART_SpiUartGetTxBufferSize
 865              	.LVL100:
 866 00ce 2C4B     		ldr	r3, .L59+60
 867 00d0 1B68     		ldr	r3, [r3]
 868 00d2 8022     		mov	r2, #128
 869 00d4 1202     		lsl	r2, r2, #8
 870 00d6 1340     		and	r3, r2
 871 00d8 00D0     		beq	.L56
 872 00da 0123     		mov	r3, #1
 873              	.L56:
 874              		.loc 1 286 0 is_stmt 0 discriminator 4
 875 00dc C318     		add	r3, r0, r3
 285:.\main.c      ****                             (UART_SpiUartGetTxBufferSize() + UART_GET_TX_FIFO_SR_VALID) == 0u)
 876              		.loc 1 285 0 is_stmt 1 discriminator 4
 877 00de 002B     		cmp	r3, #0
 878 00e0 1AD1     		bne	.L55
 287:.\main.c      ****                     {
 288:.\main.c      ****                         #ifdef FLOW_CONTROL
 289:.\main.c      ****                         EnableUartRxInt();
 879              		.loc 1 289 0
 880 00e2 FFF7FEFF 		bl	EnableUartRxInt
 881              	.LVL101:
 290:.\main.c      ****                         #endif
 291:.\main.c      ****                         
 292:.\main.c      ****                         CySysPmSleep();
 882              		.loc 1 292 0
 883 00e6 FFF7FEFF 		bl	CySysPmSleep
 884              	.LVL102:
 293:.\main.c      ****                         
 294:.\main.c      ****                         #ifdef FLOW_CONTROL
 295:.\main.c      ****                         DisableUartRxInt();
 885              		.loc 1 295 0
 886 00ea FFF7FEFF 		bl	DisableUartRxInt
 887              	.LVL103:
 888 00ee 13E0     		b	.L55
 889              	.LVL104:
 890              	.L53:
 296:.\main.c      ****                         #endif
 297:.\main.c      ****                     }
 298:.\main.c      ****                 }
ARM GAS  C:\Users\Alec\AppData\Local\Temp\cceSb1Ux.s 			page 22


 299:.\main.c      ****                 else
 300:.\main.c      ****                 {
 301:.\main.c      ****                     if((blessState != CYBLE_BLESS_STATE_EVENT_CLOSE) && \
 891              		.loc 1 301 0
 892 00f0 0228     		cmp	r0, #2
 893 00f2 11D0     		beq	.L55
 302:.\main.c      ****                             (UART_SpiUartGetTxBufferSize() + UART_GET_TX_FIFO_SR_VALID) == 0u)
 894              		.loc 1 302 0
 895 00f4 FFF7FEFF 		bl	UART_SpiUartGetTxBufferSize
 896              	.LVL105:
 897 00f8 214B     		ldr	r3, .L59+60
 898 00fa 1B68     		ldr	r3, [r3]
 899 00fc 8022     		mov	r2, #128
 900 00fe 1202     		lsl	r2, r2, #8
 901 0100 1340     		and	r3, r2
 902 0102 00D0     		beq	.L57
 903 0104 0123     		mov	r3, #1
 904              	.L57:
 905              		.loc 1 302 0 is_stmt 0 discriminator 4
 906 0106 C318     		add	r3, r0, r3
 301:.\main.c      ****                             (UART_SpiUartGetTxBufferSize() + UART_GET_TX_FIFO_SR_VALID) == 0u)
 907              		.loc 1 301 0 is_stmt 1 discriminator 4
 908 0108 002B     		cmp	r3, #0
 909 010a 05D1     		bne	.L55
 303:.\main.c      ****                     {
 304:.\main.c      ****                         #ifdef FLOW_CONTROL
 305:.\main.c      ****                         EnableUartRxInt();
 910              		.loc 1 305 0
 911 010c FFF7FEFF 		bl	EnableUartRxInt
 912              	.LVL106:
 306:.\main.c      ****                         #endif
 307:.\main.c      ****                         
 308:.\main.c      ****                         CySysPmSleep();
 913              		.loc 1 308 0
 914 0110 FFF7FEFF 		bl	CySysPmSleep
 915              	.LVL107:
 309:.\main.c      ****                         
 310:.\main.c      ****                         #ifdef FLOW_CONTROL
 311:.\main.c      ****                         DisableUartRxInt();
 916              		.loc 1 311 0
 917 0114 FFF7FEFF 		bl	DisableUartRxInt
 918              	.LVL108:
 919              	.L55:
 312:.\main.c      ****                         #endif
 313:.\main.c      ****                     }
 314:.\main.c      ****                 }
 315:.\main.c      ****                 CyGlobalIntEnable;
 920              		.loc 1 315 0
 921              	@ 315 ".\main.c" 1
 922 0118 62B6     		CPSIE   i
 923              	@ 0 "" 2
 924              	.LVL109:
 925              		.code	16
 926              	.L52:
 316:.\main.c      ****                 
 317:.\main.c      ****             }
 318:.\main.c      ****         #else
ARM GAS  C:\Users\Alec\AppData\Local\Temp\cceSb1Ux.s 			page 23


 319:.\main.c      ****             HandleLeds();
 320:.\main.c      ****         #endif
 321:.\main.c      ****         
 322:.\main.c      ****         /*******************************************************************
 323:.\main.c      ****         *  Process all pending BLE events in the stack
 324:.\main.c      ****         *******************************************************************/
 325:.\main.c      ****         HandleBleProcessing();
 927              		.loc 1 325 0
 928 011a FFF7FEFF 		bl	HandleBleProcessing
 929              	.LVL110:
 326:.\main.c      ****         CyBle_ProcessEvents();
 930              		.loc 1 326 0
 931 011e FFF7FEFF 		bl	CyBle_ProcessEvents
 932              	.LVL111:
 327:.\main.c      ****         
 328:.\main.c      ****         switch(system_state){
 933              		.loc 1 328 0
 934 0122 184B     		ldr	r3, .L59+64
 935 0124 1B78     		ldrb	r3, [r3]
 936 0126 002B     		cmp	r3, #0
 937 0128 BCD1     		bne	.L51
 329:.\main.c      ****             case ACTIVE:
 330:.\main.c      ****                 UpdatePositions();
 938              		.loc 1 330 0
 939 012a FFF7FEFF 		bl	UpdatePositions
 940              	.LVL112:
 331:.\main.c      ****                 set_servo(CurrentManipulator.Servo, CurrentManipulator.angle_current);
 941              		.loc 1 331 0
 942 012e 114B     		ldr	r3, .L59+48
 943 0130 9A7A     		ldrb	r2, [r3, #10]
 944 0132 0092     		str	r2, [sp]
 945 0134 1869     		ldr	r0, [r3, #16]
 946 0136 5969     		ldr	r1, [r3, #20]
 947 0138 9A69     		ldr	r2, [r3, #24]
 948 013a DB69     		ldr	r3, [r3, #28]
 949 013c FFF7FEFF 		bl	set_servo
 950              	.LVL113:
 332:.\main.c      ****                 //Servo_En_2_Write(0);
 333:.\main.c      ****                 //Servo_En_1_Write(1);
 334:.\main.c      ****                 //CyDelay(10);
 335:.\main.c      ****                 //dumb_placeholder++;
 336:.\main.c      ****                 //set_servo(servoBottom,dumb_placeholder);
 337:.\main.c      ****                 //set_servo(servoTop,dumb_placeholder);
 338:.\main.c      ****                 break;
 951              		.loc 1 338 0
 952 0140 B0E7     		b	.L51
 953              	.L60:
 954 0142 C046     		.align	2
 955              	.L59:
 956 0144 00000000 		.word	AppCallBack
 957 0148 38000000 		.word	.LC18
 958 014c 78000000 		.word	.LC20
 959 0150 B8000000 		.word	.LC22
 960 0154 FC000000 		.word	.LC24
 961 0158 18010000 		.word	.LC26
 962 015c 34010000 		.word	.LC28
 963 0160 00000000 		.word	TIMER_ISR
ARM GAS  C:\Users\Alec\AppData\Local\Temp\cceSb1Ux.s 			page 24


 964 0164 5E1A0000 		.word	6750
 965 0168 00000000 		.word	Servo_En_1_Write
 966 016c 00000000 		.word	Servo_En_2_Write
 967 0170 00000000 		.word	Servo_En_3_Write
 968 0174 00000000 		.word	CurrentManipulator
 969 0178 50010000 		.word	.LC35
 970 017c 00000000 		.word	cyBle_state
 971 0180 08022440 		.word	1076101640
 972 0184 00000000 		.word	.LANCHOR0
 973              		.cfi_endproc
 974              	.LFE46:
 975              		.size	main, .-main
 976              		.comm	CurrentManipulator,32,8
 977              		.global	inString
 978              		.global	sentString
 979              		.comm	dumb_placeholder,4,4
 980              		.global	last_key_state
 981              		.global	system_state
 982              		.global	battery_state
 983              		.global	count
 984              		.data
 985              		.align	2
 986              		.set	.LANCHOR1,. + 0
 987              		.type	battery_state, %object
 988              		.size	battery_state, 1
 989              	battery_state:
 990 0000 03       		.byte	3
 991 0001 000000   		.space	3
 992              		.type	sentString, %object
 993              		.size	sentString, 4
 994              	sentString:
 995 0004 7C010000 		.word	.LC39
 996              		.type	count, %object
 997              		.size	count, 4
 998              	count:
 999 0008 64000000 		.word	100
 1000              		.type	inString, %object
 1001              		.size	inString, 4
 1002              	inString:
 1003 000c 34000000 		.word	.LC15
 1004              		.section	.rodata.str1.4,"aMS",%progbits,1
 1005              		.align	2
 1006              	.LC2:
 1007 0000 53797374 		.ascii	"System active\012\000"
 1007      656D2061 
 1007      63746976 
 1007      650A00
 1008 000f 00       		.space	1
 1009              	.LC5:
 1010 0010 53797374 		.ascii	"System inactive\012\000"
 1010      656D2069 
 1010      6E616374 
 1010      6976650A 
 1010      00
 1011 0021 000000   		.space	3
 1012              	.LC7:
 1013 0024 53797374 		.ascii	"System down\015\000"
ARM GAS  C:\Users\Alec\AppData\Local\Temp\cceSb1Ux.s 			page 25


 1013      656D2064 
 1013      6F776E0D 
 1013      00
 1014 0031 000000   		.space	3
 1015              	.LC15:
 1016 0034 00       		.ascii	"\000"
 1017 0035 000000   		.space	3
 1018              	.LC18:
 1019 0038 0A0D2A2A 		.ascii	"\012\015*******************************************"
 1019      2A2A2A2A 
 1019      2A2A2A2A 
 1019      2A2A2A2A 
 1019      2A2A2A2A 
 1020 0065 2A2A2A2A 		.ascii	"*****************\000"
 1020      2A2A2A2A 
 1020      2A2A2A2A 
 1020      2A2A2A2A 
 1020      2A00
 1021 0077 00       		.space	1
 1022              	.LC20:
 1023 0078 0A0D2A2A 		.ascii	"\012\015***************** BLE UART example project "
 1023      2A2A2A2A 
 1023      2A2A2A2A 
 1023      2A2A2A2A 
 1023      2A2A2A20 
 1024 00a5 2A2A2A2A 		.ascii	"*****************\000"
 1024      2A2A2A2A 
 1024      2A2A2A2A 
 1024      2A2A2A2A 
 1024      2A00
 1025 00b7 00       		.space	1
 1026              	.LC22:
 1027 00b8 0A0D2A2A 		.ascii	"\012\015*******************************************"
 1027      2A2A2A2A 
 1027      2A2A2A2A 
 1027      2A2A2A2A 
 1027      2A2A2A2A 
 1028 00e5 2A2A2A2A 		.ascii	"*****************\012\015\000"
 1028      2A2A2A2A 
 1028      2A2A2A2A 
 1028      2A2A2A2A 
 1028      2A0A0D00 
 1029 00f9 000000   		.space	3
 1030              	.LC24:
 1031 00fc 0A0D4465 		.ascii	"\012\015Device role \011: PERIPHERAL\000"
 1031      76696365 
 1031      20726F6C 
 1031      6520093A 
 1031      20504552 
 1032              	.LC26:
 1033 0118 0A0D4C6F 		.ascii	"\012\015Low Power Mode \011: ENABLED\000"
 1033      7720506F 
 1033      77657220 
 1033      4D6F6465 
 1033      20093A20 
 1034              	.LC28:
 1035 0134 0A0D466C 		.ascii	"\012\015Flow Control \011: ENABLED\000"
ARM GAS  C:\Users\Alec\AppData\Local\Temp\cceSb1Ux.s 			page 26


 1035      6F772043 
 1035      6F6E7472 
 1035      6F6C2009 
 1035      3A20454E 
 1036 014e 0000     		.space	2
 1037              	.LC35:
 1038 0150 0A0D0909 		.ascii	"\012\015\011\011CyBle stack initilization FAILED!!!"
 1038      4379426C 
 1038      65207374 
 1038      61636B20 
 1038      696E6974 
 1039 0177 200A0D20 		.ascii	" \012\015 \000"
 1039      00
 1040              	.LC39:
 1041 017c 74686973 		.ascii	"this test\000"
 1041      20746573 
 1041      7400
 1042 0186 0000     		.bss
 1043              		.set	.LANCHOR0,. + 0
 1044              		.type	system_state, %object
 1045              		.size	system_state, 1
 1046              	system_state:
 1047 0000 00       		.space	1
 1048              		.type	last_key_state, %object
 1049              		.size	last_key_state, 1
 1050              	last_key_state:
 1051 0001 00       		.space	1
 1052              		.text
 1053              	.Letext0:
 1054              		.file 2 "c:\\program files (x86)\\cypress\\psoc creator\\3.3\\psoc creator\\import\\gnu\\arm\\4.9.
 1055              		.file 3 "c:\\program files (x86)\\cypress\\psoc creator\\3.3\\psoc creator\\import\\gnu\\arm\\4.9.
 1056              		.file 4 "Generated_Source\\PSoC4/cytypes.h"
 1057              		.file 5 "c:\\program files (x86)\\cypress\\psoc creator\\3.3\\psoc creator\\import\\gnu\\arm\\4.9.
 1058              		.file 6 "Generated_Source\\PSoC4/BLE_Stack.h"
 1059              		.file 7 "Generated_Source\\PSoC4/BLE.h"
 1060              		.file 8 "Generated_Source\\PSoC4/BLE_eventHandler.h"
 1061              		.file 9 "c:\\program files (x86)\\cypress\\psoc creator\\3.3\\psoc creator\\import\\gnu\\arm\\4.9.
 1062              		.file 10 "Generated_Source\\PSoC4/Servo_En_1.h"
 1063              		.file 11 "Generated_Source\\PSoC4/Servo_En_2.h"
 1064              		.file 12 "Generated_Source\\PSoC4/Servo_En_3.h"
 1065              		.file 13 "Generated_Source\\PSoC4/LED_1.h"
 1066              		.file 14 "Generated_Source\\PSoC4/LED_2.h"
 1067              		.file 15 "Generated_Source\\PSoC4/LED_3.h"
 1068              		.file 16 "Generated_Source\\PSoC4/UART_SPI_UART.h"
 1069              		.file 17 "c:\\program files (x86)\\cypress\\psoc creator\\3.3\\psoc creator\\import\\gnu\\arm\\4.9
 1070              		.file 18 "Generated_Source\\PSoC4/UART.h"
 1071              		.file 19 "Generated_Source\\PSoC4/Countdown.h"
 1072              		.file 20 "Generated_Source\\PSoC4/timer_interrupt.h"
 1073              		.file 21 "Generated_Source\\PSoC4/PWM_1.h"
 1074              		.file 22 ".\\app_UART.h"
 1075              		.file 23 "Generated_Source\\PSoC4/cyPm.h"
 1076              		.file 24 ".\\app_Ble.h"
 1077              		.file 25 "c:\\program files (x86)\\cypress\\psoc creator\\3.3\\psoc creator\\import\\gnu\\arm\\4.9