ARM GAS  C:\Users\Alec\AppData\Local\Temp\cc10Bhqe.s 			page 1


   1              		.cpu cortex-m0
   2              		.fpu softvfp
   3              		.eabi_attribute 20, 1
   4              		.eabi_attribute 21, 1
   5              		.eabi_attribute 23, 3
   6              		.eabi_attribute 24, 1
   7              		.eabi_attribute 25, 1
   8              		.eabi_attribute 26, 1
   9              		.eabi_attribute 30, 1
  10              		.eabi_attribute 34, 0
  11              		.eabi_attribute 18, 4
  12              		.code	16
  13              		.file	"main.c"
  14              		.text
  15              	.Ltext0:
  16              		.cfi_sections	.debug_frame
  17              		.global	__aeabi_i2d
  18              		.section	.text.create_servo,"ax",%progbits
  19              		.align	2
  20              		.global	create_servo
  21              		.code	16
  22              		.thumb_func
  23              		.type	create_servo, %function
  24              	create_servo:
  25              	.LFB34:
  26              		.file 1 ".\\main.c"
   1:.\main.c      **** #include <project.h>
   2:.\main.c      **** 
   3:.\main.c      **** typedef struct Servo { // Servo object
   4:.\main.c      ****     void (*pwmPtr)(uint16_t);
   5:.\main.c      ****     uint16_t max;
   6:.\main.c      ****     uint16_t min;
   7:.\main.c      ****     double range;
   8:.\main.c      **** };
   9:.\main.c      **** 
  10:.\main.c      **** struct Servo create_servo(void (pwm_ptr)(uint16_t), uint16_t min, uint16_t max){ // Initializes the
  27              		.loc 1 10 0
  28              		.cfi_startproc
  29              	.LVL0:
  30 0000 38B5     		push	{r3, r4, r5, lr}
  31              		.cfi_def_cfa_offset 16
  32              		.cfi_offset 3, -16
  33              		.cfi_offset 4, -12
  34              		.cfi_offset 5, -8
  35              		.cfi_offset 14, -4
  36 0002 041C     		mov	r4, r0
  37 0004 0D1C     		mov	r5, r1
  11:.\main.c      ****     struct Servo createdServo;
  12:.\main.c      ****     createdServo.max = max;
  38              		.loc 1 12 0
  39 0006 8380     		strh	r3, [r0, #4]
  13:.\main.c      ****     createdServo.min = min;
  40              		.loc 1 13 0
  41 0008 C280     		strh	r2, [r0, #6]
  14:.\main.c      ****     createdServo.range = max - min;
  42              		.loc 1 14 0
  43 000a 981A     		sub	r0, r3, r2
ARM GAS  C:\Users\Alec\AppData\Local\Temp\cc10Bhqe.s 			page 2


  44              	.LVL1:
  45 000c FFF7FEFF 		bl	__aeabi_i2d
  46              	.LVL2:
  47 0010 A060     		str	r0, [r4, #8]
  48 0012 E160     		str	r1, [r4, #12]
  15:.\main.c      ****     createdServo.pwmPtr = pwm_ptr;
  49              		.loc 1 15 0
  50 0014 2560     		str	r5, [r4]
  16:.\main.c      ****     return createdServo;
  17:.\main.c      **** }
  51              		.loc 1 17 0
  52 0016 201C     		mov	r0, r4
  53              		@ sp needed
  54              	.LVL3:
  55              	.LVL4:
  56 0018 38BD     		pop	{r3, r4, r5, pc}
  57              		.cfi_endproc
  58              	.LFE34:
  59              		.size	create_servo, .-create_servo
  60              		.global	__aeabi_dmul
  61              		.global	__aeabi_ddiv
  62              		.global	__aeabi_dadd
  63              		.global	__aeabi_d2uiz
  64 001a C046     		.section	.text.set_servo,"ax",%progbits
  65              		.align	2
  66              		.global	set_servo
  67              		.code	16
  68              		.thumb_func
  69              		.type	set_servo, %function
  70              	set_servo:
  71              	.LFB35:
  18:.\main.c      **** 
  19:.\main.c      **** void set_servo(struct Servo servo, uint8_t angle){ // Set servo to the angle specified
  72              		.loc 1 19 0
  73              		.cfi_startproc
  74              	.LVL5:
  75 0000 F0B5     		push	{r4, r5, r6, r7, lr}
  76              		.cfi_def_cfa_offset 20
  77              		.cfi_offset 4, -20
  78              		.cfi_offset 5, -16
  79              		.cfi_offset 6, -12
  80              		.cfi_offset 7, -8
  81              		.cfi_offset 14, -4
  82 0002 85B0     		sub	sp, sp, #20
  83              		.cfi_def_cfa_offset 40
  84 0004 041C     		mov	r4, r0
  85 0006 0D0C     		lsr	r5, r1, #16
  86 0008 0292     		str	r2, [sp, #8]
  87 000a 0393     		str	r3, [sp, #12]
  88 000c 0AAB     		add	r3, sp, #40
  89              	.LVL6:
  90 000e 1878     		ldrb	r0, [r3]
  20:.\main.c      ****     double setpoint = angle * servo.range / 180 + servo.min;
  91              		.loc 1 20 0
  92 0010 029E     		ldr	r6, [sp, #8]
  93 0012 039F     		ldr	r7, [sp, #12]
  94 0014 FFF7FEFF 		bl	__aeabi_i2d
ARM GAS  C:\Users\Alec\AppData\Local\Temp\cc10Bhqe.s 			page 3


  95              	.LVL7:
  96 0018 321C     		mov	r2, r6
  97 001a 3B1C     		mov	r3, r7
  98 001c FFF7FEFF 		bl	__aeabi_dmul
  99              	.LVL8:
 100 0020 0022     		mov	r2, #0
 101 0022 0A4B     		ldr	r3, .L3
 102 0024 FFF7FEFF 		bl	__aeabi_ddiv
 103              	.LVL9:
 104 0028 061C     		mov	r6, r0
 105 002a 0F1C     		mov	r7, r1
 106 002c A8B2     		uxth	r0, r5
 107 002e FFF7FEFF 		bl	__aeabi_i2d
 108              	.LVL10:
 109 0032 021C     		mov	r2, r0
 110 0034 0B1C     		mov	r3, r1
 111 0036 301C     		mov	r0, r6
 112 0038 391C     		mov	r1, r7
 113 003a FFF7FEFF 		bl	__aeabi_dadd
 114              	.LVL11:
  21:.\main.c      ****     servo.pwmPtr(setpoint);
 115              		.loc 1 21 0
 116 003e FFF7FEFF 		bl	__aeabi_d2uiz
 117              	.LVL12:
 118 0042 80B2     		uxth	r0, r0
 119 0044 A047     		blx	r4
 120              	.LVL13:
  22:.\main.c      **** }
 121              		.loc 1 22 0
 122 0046 05B0     		add	sp, sp, #20
 123              		@ sp needed
 124 0048 F0BD     		pop	{r4, r5, r6, r7, pc}
 125              	.L4:
 126 004a C046     		.align	2
 127              	.L3:
 128 004c 00806640 		.word	1080459264
 129              		.cfi_endproc
 130              	.LFE35:
 131              		.size	set_servo, .-set_servo
 132              		.section	.text.main,"ax",%progbits
 133              		.align	2
 134              		.global	main
 135              		.code	16
 136              		.thumb_func
 137              		.type	main, %function
 138              	main:
 139              	.LFB36:
  23:.\main.c      **** 
  24:.\main.c      **** int main()
  25:.\main.c      **** {
 140              		.loc 1 25 0
 141              		.cfi_startproc
 142 0000 10B5     		push	{r4, lr}
 143              		.cfi_def_cfa_offset 8
 144              		.cfi_offset 4, -8
 145              		.cfi_offset 14, -4
 146 0002 8AB0     		sub	sp, sp, #40
ARM GAS  C:\Users\Alec\AppData\Local\Temp\cc10Bhqe.s 			page 4


 147              		.cfi_def_cfa_offset 48
  26:.\main.c      ****     CyGlobalIntEnable; /* Enable global interrupts. */
 148              		.loc 1 26 0
 149              	@ 26 ".\main.c" 1
 150 0004 62B6     		CPSIE   i
 151              	@ 0 "" 2
  27:.\main.c      ****     PWM_1_Enable();
 152              		.loc 1 27 0
 153              		.code	16
 154 0006 FFF7FEFF 		bl	PWM_1_Enable
 155              	.LVL14:
  28:.\main.c      ****     struct Servo servoBottom =  create_servo(PWM_1_WriteCompare1,1400,6750);
 156              		.loc 1 28 0
 157 000a 06A8     		add	r0, sp, #24
 158 000c 0F49     		ldr	r1, .L7
 159 000e AF22     		mov	r2, #175
 160 0010 D200     		lsl	r2, r2, #3
 161 0012 0F4B     		ldr	r3, .L7+4
 162 0014 FFF7FEFF 		bl	create_servo
 163              	.LVL15:
  29:.\main.c      ****     struct Servo servoTop =  create_servo(PWM_1_WriteCompare2,6900,1650);
 164              		.loc 1 29 0
 165 0018 02A8     		add	r0, sp, #8
 166 001a 0E49     		ldr	r1, .L7+8
 167 001c 0E4A     		ldr	r2, .L7+12
 168 001e 0F4B     		ldr	r3, .L7+16
 169 0020 FFF7FEFF 		bl	create_servo
 170              	.LVL16:
 171              	.L6:
  30:.\main.c      ****     for(;;)
  31:.\main.c      ****     {
  32:.\main.c      ****         CyDelay(5000);
 172              		.loc 1 32 0 discriminator 1
 173 0024 0E48     		ldr	r0, .L7+20
 174 0026 FFF7FEFF 		bl	CyDelay
 175              	.LVL17:
  33:.\main.c      ****         set_servo(servoBottom, 45);
 176              		.loc 1 33 0 discriminator 1
 177 002a 2D24     		mov	r4, #45
 178 002c 0094     		str	r4, [sp]
 179 002e 0698     		ldr	r0, [sp, #24]
 180 0030 0799     		ldr	r1, [sp, #28]
 181 0032 089A     		ldr	r2, [sp, #32]
 182 0034 099B     		ldr	r3, [sp, #36]
 183 0036 FFF7FEFF 		bl	set_servo
 184              	.LVL18:
  34:.\main.c      ****         set_servo(servoTop, 45);
 185              		.loc 1 34 0 discriminator 1
 186 003a 0094     		str	r4, [sp]
 187 003c 0298     		ldr	r0, [sp, #8]
 188 003e 0399     		ldr	r1, [sp, #12]
 189 0040 049A     		ldr	r2, [sp, #16]
 190 0042 059B     		ldr	r3, [sp, #20]
 191 0044 FFF7FEFF 		bl	set_servo
 192              	.LVL19:
  35:.\main.c      ****     }
 193              		.loc 1 35 0 discriminator 1
ARM GAS  C:\Users\Alec\AppData\Local\Temp\cc10Bhqe.s 			page 5


 194 0048 ECE7     		b	.L6
 195              	.L8:
 196 004a C046     		.align	2
 197              	.L7:
 198 004c 00000000 		.word	PWM_1_WriteCompare1
 199 0050 5E1A0000 		.word	6750
 200 0054 00000000 		.word	PWM_1_WriteCompare2
 201 0058 F41A0000 		.word	6900
 202 005c 72060000 		.word	1650
 203 0060 88130000 		.word	5000
 204              		.cfi_endproc
 205              	.LFE36:
 206              		.size	main, .-main
 207              		.text
 208              	.Letext0:
 209              		.file 2 "c:\\program files (x86)\\cypress\\psoc creator\\3.3\\psoc creator\\import\\gnu\\arm\\4.9.
 210              		.file 3 "c:\\program files (x86)\\cypress\\psoc creator\\3.3\\psoc creator\\import\\gnu\\arm\\4.9.
 211              		.file 4 "Generated_Source\\PSoC4/cytypes.h"
 212              		.file 5 "Generated_Source\\PSoC4/PWM_1.h"
 213              		.file 6 "Generated_Source\\PSoC4/CyLib.h"